; Function Attrs: mustprogress uwtable
define hidden noundef zeroext i1 @_ZN12seq_rewriter19lift_str_from_to_reEP4exprR7obj_refIS0_11ast_managerE(ptr noundef nonnull align 8 dereferenceable(497) %0, ptr noundef readonly captures(none) %1, ptr noundef nonnull align 8 captures(none) dereferenceable(16) %2) local_unnamed_addr #3 align 2 {
  %4 = getelementptr inbounds nuw i8, ptr %0, i64 72
  %5 = load i32, ptr %4, align 8, !tbaa !87
  %6 = getelementptr inbounds nuw i8, ptr %1, i64 4
  %7 = load i32, ptr %6, align 4
  %8 = and i32 %7, 65535
  %9 = icmp eq i32 %8, 0
  br i1 %9, label %10, label %41

10:                                               ; preds = %3
  %11 = getelementptr inbounds nuw i8, ptr %1, i64 16
  %12 = load ptr, ptr %11, align 8, !tbaa !202
  %13 = getelementptr inbounds nuw i8, ptr %12, i64 24
  %14 = load ptr, ptr %13, align 8, !tbaa !207
  %.not.i.i.i.i.i = icmp eq ptr %14, null
  br i1 %.not.i.i.i.i.i, label %41, label %_ZNK8seq_util3rex8is_to_reEPK4expr.exit.i

_ZNK8seq_util3rex8is_to_reEPK4expr.exit.i:        ; preds = %10
  %15 = load i32, ptr %14, align 8, !tbaa !210
  %16 = icmp eq i32 %15, %5
  %17 = getelementptr inbounds nuw i8, ptr %14, i64 4
  %18 = load i32, ptr %17, align 4
  %19 = icmp eq i32 %18, 15
  %20 = select i1 %16, i1 %19, i1 false
  br i1 %20, label %21, label %41

21:                                               ; preds = %_ZNK8seq_util3rex8is_to_reEPK4expr.exit.i
  %22 = getelementptr inbounds nuw i8, ptr %1, i64 24
  %23 = load i32, ptr %22, align 8, !tbaa !214
  %24 = icmp eq i32 %23, 1
  br i1 %24, label %25, label %41

25:                                               ; preds = %21
  %26 = getelementptr inbounds nuw i8, ptr %1, i64 32
  %27 = load ptr, ptr %26, align 8, !tbaa !3
  %.not.i = icmp eq ptr %27, null
  br i1 %.not.i, label %31, label %_ZN11ast_manager7inc_refEP3ast.exit.i

_ZN11ast_manager7inc_refEP3ast.exit.i:            ; preds = %25
  %28 = getelementptr inbounds nuw i8, ptr %27, i64 8
  %29 = load i32, ptr %28, align 4, !tbaa !99
  %30 = add i32 %29, 1
  store i32 %30, ptr %28, align 4, !tbaa !99
  br label %31

31:                                               ; preds = %_ZN11ast_manager7inc_refEP3ast.exit.i, %25
  %32 = load ptr, ptr %2, align 8, !tbaa !11
  %.not.i4.i = icmp eq ptr %32, null
  br i1 %.not.i4.i, label %_ZN7obj_refI4expr11ast_managerEaSEPS0_.exit, label %33

33:                                               ; preds = %31
  %34 = getelementptr inbounds nuw i8, ptr %2, i64 8
  %35 = load ptr, ptr %34, align 8, !tbaa !8
  %36 = getelementptr inbounds nuw i8, ptr %32, i64 8
  %37 = load i32, ptr %36, align 4, !tbaa !99
  %38 = add i32 %37, -1
  store i32 %38, ptr %36, align 4, !tbaa !99
  %39 = icmp eq i32 %38, 0
  br i1 %39, label %40, label %_ZN7obj_refI4expr11ast_managerEaSEPS0_.exit

40:                                               ; preds = %33
  tail call void @_ZN11ast_manager11delete_nodeEP3ast(ptr noundef nonnull align 8 dereferenceable(976) %35, ptr noundef nonnull %32)
  br label %_ZN7obj_refI4expr11ast_managerEaSEPS0_.exit

_ZN7obj_refI4expr11ast_managerEaSEPS0_.exit:      ; preds = %31, %33, %40
  store ptr %27, ptr %2, align 8, !tbaa !11
  br label %43

41:                                               ; preds = %21, %_ZNK8seq_util3rex8is_to_reEPK4expr.exit.i, %3, %10
  %42 = tail call noundef zeroext i1 @_ZN12seq_rewriter23lift_str_from_to_re_iteEP4exprR7obj_refIS0_11ast_managerE(ptr noundef nonnull align 8 dereferenceable(497) %0, ptr noundef nonnull %1, ptr noundef nonnull align 8 dereferenceable(16) %2)
  br label %43

43:                                               ; preds = %41, %_ZN7obj_refI4expr11ast_managerEaSEPS0_.exit
  %.0 = phi i1 [ true, %_ZN7obj_refI4expr11ast_managerEaSEPS0_.exit ], [ %42, %41 ]
  ret i1 %.0
}